target datalayout = "e-m:e-p270:32:32-p271:32:32-p272:64:64-i64:64-i128:128-f80:128-n8:16:32:64-S128"
target triple = "x86_64-pc-linux-gnu"

%struct.ILookInStream = type { ptr, ptr, ptr, ptr }

; Function Attrs: nounwind uwtable
define i32 @LookInStream_SeekTo(ptr noundef %0, i64 noundef %1) #0 {
  %3 = alloca ptr, align 8
  %4 = alloca i64, align 8
  %5 = alloca i64, align 8
  store ptr %0, ptr %3, align 8, !tbaa !3
  store i64 %1, ptr %4, align 8, !tbaa !15
  call void @llvm.lifetime.start.p0(i64 8, ptr %5) #3
  %6 = load i64, ptr %4, align 8, !tbaa !15
  store i64 %6, ptr %5, align 8, !tbaa !15
  %7 = load ptr, ptr %3, align 8, !tbaa !3
  %8 = getelementptr inbounds nuw %struct.ILookInStream, ptr %7, i32 0, i32 3
  %9 = load ptr, ptr %8, align 8, !tbaa !17
  %10 = load ptr, ptr %3, align 8, !tbaa !3
  %11 = call i32 %9(ptr noundef %10, ptr noundef %5, i32 noundef 0)
  call void @llvm.lifetime.end.p0(i64 8, ptr %5) #3
  ret i32 %11
}