; Function Attrs: nounwind uwtable
define i32 @LookInStream_SeekTo(ptr noundef %0, i64 noundef %1) local_unnamed_addr #0 {
  %3 = alloca i64, align 8
  call void @llvm.lifetime.start.p0(i64 8, ptr nonnull %3) #7
  store i64 %1, ptr %3, align 8, !tbaa !10
  %4 = getelementptr inbounds nuw i8, ptr %0, i64 24
  %5 = load ptr, ptr %4, align 8, !tbaa !12
  %6 = call i32 %5(ptr noundef %0, ptr noundef nonnull %3, i32 noundef 0) #7
  call void @llvm.lifetime.end.p0(i64 8, ptr nonnull %3) #7
  ret i32 %6
}